; Function Attrs: mustprogress uwtable
define internal noundef nonnull ptr @"_ZNSt17_Function_handlerIFPN7xgboost13TreeGeneratorERKNS0_10FeatureMapENSt7__cxx1112basic_stringIcSt11char_traitsIcESaIcEEEbENS0_3$_1EE9_M_invokeERKSt9_Any_dataS5_OSB_Ob"(ptr nonnull readnone align 8 captures(none) %0, ptr noundef nonnull align 8 dereferenceable(48) %1, ptr nonnull readnone align 8 captures(none) %2, ptr noundef nonnull readonly align 1 captures(none) dereferenceable(1) %3) #5 align 2 personality ptr @__gxx_personality_v0 {
  %.val = load i8, ptr %3, align 1, !tbaa !123, !range !387, !noundef !388
  %5 = tail call noalias noundef nonnull dereferenceable(416) ptr @_Znwm(i64 noundef 416) #40
  store ptr getelementptr inbounds nuw inrange(-16, 96) (i8, ptr @_ZTVN7xgboost13TreeGeneratorE, i64 16), ptr %5, align 8, !tbaa !67
  %6 = getelementptr inbounds nuw i8, ptr %5, i64 8
  store ptr %1, ptr %6, align 8, !tbaa !881
  %7 = getelementptr inbounds nuw i8, ptr %5, i64 16
  invoke void @_ZNSt7__cxx1118basic_stringstreamIcSt11char_traitsIcESaIcEEC1Ev(ptr noundef nonnull align 8 dereferenceable(128) %7)
          to label %"_ZSt10__invoke_rIPN7xgboost13TreeGeneratorERNS0_3$_1EJRKNS0_10FeatureMapENSt7__cxx1112basic_stringIcSt11char_traitsIcESaIcEEEbEENSt9enable_ifIX16is_invocable_r_vIT_T0_DpT1_EESF_E4typeEOSG_DpOSH_.exit" unwind label %8

8:                                                ; preds = %4
  %9 = landingpad { ptr, i32 }
          cleanup
  tail call void @_ZdlPvm(ptr noundef nonnull %5, i64 noundef 416) #38
  resume { ptr, i32 } %9

"_ZSt10__invoke_rIPN7xgboost13TreeGeneratorERNS0_3$_1EJRKNS0_10FeatureMapENSt7__cxx1112basic_stringIcSt11char_traitsIcESaIcEEEbEENSt9enable_ifIX16is_invocable_r_vIT_T0_DpT1_EESF_E4typeEOSG_DpOSH_.exit": ; preds = %4
  %10 = getelementptr inbounds nuw i8, ptr %5, i64 408
  store i8 %.val, ptr %10, align 8, !tbaa !883
  store ptr getelementptr inbounds nuw inrange(-16, 96) (i8, ptr @_ZTVN7xgboost13JsonGeneratorE, i64 16), ptr %5, align 8, !tbaa !67
  ret ptr %5
}